target datalayout = "e-m:e-p270:32:32-p271:32:32-p272:64:64-i64:64-i128:128-f80:128-n8:16:32:64-S128"
target triple = "x86_64-pc-linux-gnu"

%"class.llvm::Triple" = type { %"class.std::__cxx11::basic_string", i32, i32, i32, i32, i32, i32 }
%"class.std::__cxx11::basic_string" = type { %"struct.std::__cxx11::basic_string<char>::_Alloc_hider", i64, %union.anon }
%"struct.std::__cxx11::basic_string<char>::_Alloc_hider" = type { ptr }
%union.anon = type { i64, [8 x i8] }

@.str = private unnamed_addr constant [5 x i8] c"-m:l\00", align 1
@.str.1 = private unnamed_addr constant [5 x i8] c"-m:o\00", align 1
@.str.2 = private unnamed_addr constant [5 x i8] c"-m:x\00", align 1
@.str.3 = private unnamed_addr constant [5 x i8] c"-m:w\00", align 1
@.str.4 = private unnamed_addr constant [5 x i8] c"-m:a\00", align 1
@.str.5 = private unnamed_addr constant [5 x i8] c"-m:e\00", align 1

; Function Attrs: mustprogress nounwind uwtable
define linkonce_odr hidden noundef i32 @_ZNK4llvm6Triple5getOSEv(ptr noundef nonnull align 8 dereferenceable(56) %0) #0 comdat align 2 {
  %2 = alloca ptr, align 8
  store ptr %0, ptr %2, align 8
  %3 = load ptr, ptr %2, align 8
  %4 = getelementptr inbounds nuw %"class.llvm::Triple", ptr %3, i32 0, i32 4
  %5 = load i32, ptr %4, align 4
  ret i32 %5
}

; Function Attrs: mustprogress nounwind uwtable
define linkonce_odr hidden noundef i32 @_ZNK4llvm6Triple15getObjectFormatEv(ptr noundef nonnull align 8 dereferenceable(56) %0) #0 comdat align 2 {
  %2 = alloca ptr, align 8
  store ptr %0, ptr %2, align 8
  %3 = load ptr, ptr %2, align 8
  %4 = getelementptr inbounds nuw %"class.llvm::Triple", ptr %3, i32 0, i32 6
  %5 = load i32, ptr %4, align 4
  ret i32 %5
}

; Function Attrs: mustprogress nounwind uwtable
define linkonce_odr hidden noundef zeroext i1 @_ZNK4llvm6Triple18isOSBinFormatXCOFFEv(ptr noundef nonnull align 8 dereferenceable(56) %0) #0 comdat align 2 {
  %2 = alloca ptr, align 8
  store ptr %0, ptr %2, align 8
  %3 = load ptr, ptr %2, align 8
  %4 = call noundef i32 @_ZNK4llvm6Triple15getObjectFormatEv(ptr noundef nonnull align 8 dereferenceable(56) %3)
  %5 = icmp eq i32 %4, 8
  ret i1 %5
}

; Function Attrs: mustprogress nounwind uwtable
define linkonce_odr hidden noundef i32 @_ZNK4llvm6Triple7getArchEv(ptr noundef nonnull align 8 dereferenceable(56) %0) #0 comdat align 2 {
  %2 = alloca ptr, align 8
  store ptr %0, ptr %2, align 8
  %3 = load ptr, ptr %2, align 8
  %4 = getelementptr inbounds nuw %"class.llvm::Triple", ptr %3, i32 0, i32 1
  %5 = load i32, ptr %4, align 8
  ret i32 %5
}

; Function Attrs: mustprogress nounwind uwtable
define linkonce_odr hidden noundef zeroext i1 @_ZNK4llvm6Triple17isOSBinFormatCOFFEv(ptr noundef nonnull align 8 dereferenceable(56) %0) #0 comdat align 2 {
  %2 = alloca ptr, align 8
  store ptr %0, ptr %2, align 8
  %3 = load ptr, ptr %2, align 8
  %4 = call noundef i32 @_ZNK4llvm6Triple15getObjectFormatEv(ptr noundef nonnull align 8 dereferenceable(56) %3)
  %5 = icmp eq i32 %4, 1
  ret i1 %5
}

; Function Attrs: mustprogress nounwind uwtable
define linkonce_odr hidden noundef zeroext i1 @_ZNK4llvm6Triple6isUEFIEv(ptr noundef nonnull align 8 dereferenceable(56) %0) #0 comdat align 2 {
  %2 = alloca ptr, align 8
  store ptr %0, ptr %2, align 8
  %3 = load ptr, ptr %2, align 8
  %4 = call noundef i32 @_ZNK4llvm6Triple5getOSEv(ptr noundef nonnull align 8 dereferenceable(56) %3)
  %5 = icmp eq i32 %4, 13
  ret i1 %5
}

; Function Attrs: mustprogress nounwind uwtable
define linkonce_odr hidden noundef zeroext i1 @_ZNK4llvm6Triple11isOSWindowsEv(ptr noundef nonnull align 8 dereferenceable(56) %0) #0 comdat align 2 {
  %2 = alloca ptr, align 8
  store ptr %0, ptr %2, align 8
  %3 = load ptr, ptr %2, align 8
  %4 = call noundef i32 @_ZNK4llvm6Triple5getOSEv(ptr noundef nonnull align 8 dereferenceable(56) %3)
  %5 = icmp eq i32 %4, 14
  ret i1 %5
}

; Function Attrs: mustprogress nounwind uwtable
define linkonce_odr hidden noundef zeroext i1 @_ZNK4llvm6Triple18isOSBinFormatMachOEv(ptr noundef nonnull align 8 dereferenceable(56) %0) #0 comdat align 2 {
  %2 = alloca ptr, align 8
  store ptr %0, ptr %2, align 8
  %3 = load ptr, ptr %2, align 8
  %4 = call noundef i32 @_ZNK4llvm6Triple15getObjectFormatEv(ptr noundef nonnull align 8 dereferenceable(56) %3)
  %5 = icmp eq i32 %4, 5
  ret i1 %5
}

; Function Attrs: mustprogress nounwind uwtable
define linkonce_odr hidden noundef zeroext i1 @_ZNK4llvm6Triple17isOSBinFormatGOFFEv(ptr noundef nonnull align 8 dereferenceable(56) %0) #0 comdat align 2 {
  %2 = alloca ptr, align 8
  store ptr %0, ptr %2, align 8
  %3 = load ptr, ptr %2, align 8
  %4 = call noundef i32 @_ZNK4llvm6Triple15getObjectFormatEv(ptr noundef nonnull align 8 dereferenceable(56) %3)
  %5 = icmp eq i32 %4, 4
  ret i1 %5
}

; Function Attrs: mustprogress nounwind uwtable
define dso_local noundef ptr @_ZN4llvm10DataLayout20getManglingComponentERKNS_6TripleE(ptr noundef nonnull align 8 dereferenceable(56) %0) #0 align 2 {
  %2 = alloca ptr, align 8
  %3 = alloca ptr, align 8
  store ptr %0, ptr %3, align 8
  %4 = load ptr, ptr %3, align 8
  %5 = call noundef zeroext i1 @_ZNK4llvm6Triple17isOSBinFormatGOFFEv(ptr noundef nonnull align 8 dereferenceable(56) %4)
  br i1 %5, label %6, label %7

6:                                                ; preds = %1
  store ptr @.str, ptr %2, align 8
  br label %34

7:                                                ; preds = %1
  %8 = load ptr, ptr %3, align 8
  %9 = call noundef zeroext i1 @_ZNK4llvm6Triple18isOSBinFormatMachOEv(ptr noundef nonnull align 8 dereferenceable(56) %8)
  br i1 %9, label %10, label %11

10:                                               ; preds = %7
  store ptr @.str.1, ptr %2, align 8
  br label %34

11:                                               ; preds = %7
  %12 = load ptr, ptr %3, align 8
  %13 = call noundef zeroext i1 @_ZNK4llvm6Triple11isOSWindowsEv(ptr noundef nonnull align 8 dereferenceable(56) %12)
  br i1 %13, label %17, label %14

14:                                               ; preds = %11
  %15 = load ptr, ptr %3, align 8
  %16 = call noundef zeroext i1 @_ZNK4llvm6Triple6isUEFIEv(ptr noundef nonnull align 8 dereferenceable(56) %15)
  br i1 %16, label %17, label %29

17:                                               ; preds = %14, %11
  %18 = load ptr, ptr %3, align 8
  %19 = call noundef zeroext i1 @_ZNK4llvm6Triple17isOSBinFormatCOFFEv(ptr noundef nonnull align 8 dereferenceable(56) %18)
  br i1 %19, label %20, label %29

20:                                               ; preds = %17
  %21 = load ptr, ptr %3, align 8
  %22 = call noundef i32 @_ZNK4llvm6Triple7getArchEv(ptr noundef nonnull align 8 dereferenceable(56) %21)
  %23 = icmp eq i32 %22, 37
  br i1 %23, label %24, label %25

24:                                               ; preds = %20
  br label %26

25:                                               ; preds = %20
  br label %26

26:                                               ; preds = %25, %24
  %27 = phi ptr [ @.str.2, %24 ], [ @.str.3, %25 ]
  %28 = getelementptr inbounds [5 x i8], ptr %27, i64 0, i64 0
  store ptr %28, ptr %2, align 8
  br label %34

29:                                               ; preds = %17, %14
  %30 = load ptr, ptr %3, align 8
  %31 = call noundef zeroext i1 @_ZNK4llvm6Triple18isOSBinFormatXCOFFEv(ptr noundef nonnull align 8 dereferenceable(56) %30)
  br i1 %31, label %32, label %33

32:                                               ; preds = %29
  store ptr @.str.4, ptr %2, align 8
  br label %34

33:                                               ; preds = %29
  store ptr @.str.5, ptr %2, align 8
  br label %34

34:                                               ; preds = %33, %32, %26, %10, %6
  %35 = load ptr, ptr %2, align 8
  ret ptr %35
}