; Function Attrs: mustprogress nofree norecurse nosync nounwind willreturn memory(argmem: read) uwtable
define dso_local noundef nonnull ptr @_ZN4llvm10DataLayout20getManglingComponentERKNS_6TripleE(ptr noundef nonnull readonly align 8 captures(none) dereferenceable(56) %0) local_unnamed_addr #3 align 2 {
  %2 = getelementptr inbounds nuw i8, ptr %0, i64 52
  %3 = load i32, ptr %2, align 4
  switch i32 %3, label %4 [
    i32 4, label %14
    i32 5, label %.fold.split
  ]

4:                                                ; preds = %1
  %5 = getelementptr inbounds nuw i8, ptr %0, i64 44
  %6 = load i32, ptr %5, align 4
  %.off = add i32 %6, -13
  %switch = icmp ult i32 %.off, 2
  %7 = icmp eq i32 %3, 1
  %or.cond = and i1 %7, %switch
  br i1 %or.cond, label %8, label %12

8:                                                ; preds = %4
  %9 = getelementptr inbounds nuw i8, ptr %0, i64 32
  %10 = load i32, ptr %9, align 8
  %11 = icmp eq i32 %10, 37
  %.str.2..str.3 = select i1 %11, ptr @.str.2, ptr @.str.3
  br label %14

12:                                               ; preds = %4
  %13 = icmp eq i32 %3, 8
  %.str.4..str.5 = select i1 %13, ptr @.str.4, ptr @.str.5
  br label %14

.fold.split:                                      ; preds = %1
  br label %14

14:                                               ; preds = %1, %.fold.split, %12, %8
  %.0 = phi ptr [ %.str.2..str.3, %8 ], [ @.str, %1 ], [ %.str.4..str.5, %12 ], [ @.str.1, %.fold.split ]
  ret ptr %.0
}